target datalayout = "e-m:e-p270:32:32-p271:32:32-p272:64:64-i64:64-i128:128-f80:128-n8:16:32:64-S128"
target triple = "x86_64-unknown-linux-gnu"

%struct.MACAddr = type { [6 x i8] }
%struct.NetClientState = type { ptr, i32, %union.anon, ptr, ptr, ptr, ptr, [256 x i8], i8, ptr, i32, i8, i32, i32, i8, i8, i8, %union.anon.0 }
%union.anon = type { %struct.QTailQLink }
%struct.QTailQLink = type { ptr, ptr }
%union.anon.0 = type { %struct.QTailQLink }
%struct.NICInfo = type { %struct.MACAddr, ptr, ptr, ptr, ptr, i32, i32, i32 }

@.str.4 = private unnamed_addr constant [30 x i8] c"%02x:%02x:%02x:%02x:%02x:%02x\00", align 1
@error_abort = external global ptr, align 8
@.str.7 = private unnamed_addr constant [1 x i8] zeroinitializer, align 1
@.str.9 = private unnamed_addr constant [41 x i8] c"../qemu/hw/core/qdev-properties-system.c\00", align 1
@.str.10 = private unnamed_addr constant [22 x i8] c"!value || value->name\00", align 1
@__PRETTY_FUNCTION__.qdev_prop_set_netdev = private unnamed_addr constant [73 x i8] c"void qdev_prop_set_netdev(DeviceState *, const char *, NetClientState *)\00", align 1
@.str.11 = private unnamed_addr constant [4 x i8] c"mac\00", align 1
@.str.12 = private unnamed_addr constant [7 x i8] c"netdev\00", align 1
@.str.13 = private unnamed_addr constant [8 x i8] c"vectors\00", align 1

; Function Attrs: nounwind sspstrong uwtable
define dso_local void @qdev_prop_set_netdev(ptr noundef %dev, ptr noundef %name, ptr noundef %value) #0 {
entry:
  %dev.addr = alloca ptr, align 8
  %name.addr = alloca ptr, align 8
  %value.addr = alloca ptr, align 8
  store ptr %dev, ptr %dev.addr, align 8
  store ptr %name, ptr %name.addr, align 8
  store ptr %value, ptr %value.addr, align 8
  %0 = load ptr, ptr %value.addr, align 8
  %tobool = icmp ne ptr %0, null
  br i1 %tobool, label %lor.lhs.false, label %if.then

lor.lhs.false:                                    ; preds = %entry
  %1 = load ptr, ptr %value.addr, align 8
  %name1 = getelementptr inbounds %struct.NetClientState, ptr %1, i32 0, i32 6
  %2 = load ptr, ptr %name1, align 8
  %tobool2 = icmp ne ptr %2, null
  br i1 %tobool2, label %if.then, label %if.else

if.then:                                          ; preds = %lor.lhs.false, %entry
  br label %if.end

if.else:                                          ; preds = %lor.lhs.false
  call void @__assert_fail(ptr noundef @.str.10, ptr noundef @.str.9, i32 noundef 538, ptr noundef @__PRETTY_FUNCTION__.qdev_prop_set_netdev) #9
  unreachable

if.end:                                           ; preds = %if.then
  %3 = load ptr, ptr %dev.addr, align 8
  %4 = load ptr, ptr %name.addr, align 8
  %5 = load ptr, ptr %value.addr, align 8
  %tobool3 = icmp ne ptr %5, null
  br i1 %tobool3, label %cond.true, label %cond.false

cond.true:                                        ; preds = %if.end
  %6 = load ptr, ptr %value.addr, align 8
  %name4 = getelementptr inbounds %struct.NetClientState, ptr %6, i32 0, i32 6
  %7 = load ptr, ptr %name4, align 8
  br label %cond.end

cond.false:                                       ; preds = %if.end
  br label %cond.end

cond.end:                                         ; preds = %cond.false, %cond.true
  %cond = phi ptr [ %7, %cond.true ], [ @.str.7, %cond.false ]
  %call = call zeroext i1 @object_property_set_str(ptr noundef %3, ptr noundef %4, ptr noundef %cond, ptr noundef @error_abort)
  ret void
}

; Function Attrs: nounwind sspstrong uwtable
define dso_local void @qdev_prop_set_macaddr(ptr noundef %dev, ptr noundef %name, ptr noundef %value) #0 {
entry:
  %dev.addr = alloca ptr, align 8
  %name.addr = alloca ptr, align 8
  %value.addr = alloca ptr, align 8
  %str = alloca [18 x i8], align 16
  store ptr %dev, ptr %dev.addr, align 8
  store ptr %name, ptr %name.addr, align 8
  store ptr %value, ptr %value.addr, align 8
  %arraydecay = getelementptr inbounds [18 x i8], ptr %str, i64 0, i64 0
  %0 = load ptr, ptr %value.addr, align 8
  %arrayidx = getelementptr i8, ptr %0, i64 0
  %1 = load i8, ptr %arrayidx, align 1
  %conv = zext i8 %1 to i32
  %2 = load ptr, ptr %value.addr, align 8
  %arrayidx1 = getelementptr i8, ptr %2, i64 1
  %3 = load i8, ptr %arrayidx1, align 1
  %conv2 = zext i8 %3 to i32
  %4 = load ptr, ptr %value.addr, align 8
  %arrayidx3 = getelementptr i8, ptr %4, i64 2
  %5 = load i8, ptr %arrayidx3, align 1
  %conv4 = zext i8 %5 to i32
  %6 = load ptr, ptr %value.addr, align 8
  %arrayidx5 = getelementptr i8, ptr %6, i64 3
  %7 = load i8, ptr %arrayidx5, align 1
  %conv6 = zext i8 %7 to i32
  %8 = load ptr, ptr %value.addr, align 8
  %arrayidx7 = getelementptr i8, ptr %8, i64 4
  %9 = load i8, ptr %arrayidx7, align 1
  %conv8 = zext i8 %9 to i32
  %10 = load ptr, ptr %value.addr, align 8
  %arrayidx9 = getelementptr i8, ptr %10, i64 5
  %11 = load i8, ptr %arrayidx9, align 1
  %conv10 = zext i8 %11 to i32
  %call = call i32 (ptr, i64, ptr, ...) @snprintf(ptr noundef %arraydecay, i64 noundef 18, ptr noundef @.str.4, i32 noundef %conv, i32 noundef %conv2, i32 noundef %conv4, i32 noundef %conv6, i32 noundef %conv8, i32 noundef %conv10) #7
  %12 = load ptr, ptr %dev.addr, align 8
  %13 = load ptr, ptr %name.addr, align 8
  %arraydecay11 = getelementptr inbounds [18 x i8], ptr %str, i64 0, i64 0
  %call12 = call zeroext i1 @object_property_set_str(ptr noundef %12, ptr noundef %13, ptr noundef %arraydecay11, ptr noundef @error_abort)
  ret void
}

; Function Attrs: nounwind sspstrong uwtable
define dso_local void @qdev_set_nic_properties(ptr noundef %dev, ptr noundef %nd) #0 {
entry:
  %dev.addr = alloca ptr, align 8
  %nd.addr = alloca ptr, align 8
  store ptr %dev, ptr %dev.addr, align 8
  store ptr %nd, ptr %nd.addr, align 8
  %0 = load ptr, ptr %dev.addr, align 8
  %1 = load ptr, ptr %nd.addr, align 8
  %macaddr = getelementptr inbounds %struct.NICInfo, ptr %1, i32 0, i32 0
  %a = getelementptr inbounds %struct.MACAddr, ptr %macaddr, i32 0, i32 0
  %arraydecay = getelementptr inbounds [6 x i8], ptr %a, i64 0, i64 0
  call void @qdev_prop_set_macaddr(ptr noundef %0, ptr noundef @.str.11, ptr noundef %arraydecay)
  %2 = load ptr, ptr %nd.addr, align 8
  %netdev = getelementptr inbounds %struct.NICInfo, ptr %2, i32 0, i32 4
  %3 = load ptr, ptr %netdev, align 8
  %tobool = icmp ne ptr %3, null
  br i1 %tobool, label %if.then, label %if.end

if.then:                                          ; preds = %entry
  %4 = load ptr, ptr %dev.addr, align 8
  %5 = load ptr, ptr %nd.addr, align 8
  %netdev1 = getelementptr inbounds %struct.NICInfo, ptr %5, i32 0, i32 4
  %6 = load ptr, ptr %netdev1, align 8
  call void @qdev_prop_set_netdev(ptr noundef %4, ptr noundef @.str.12, ptr noundef %6)
  br label %if.end

if.end:                                           ; preds = %if.then, %entry
  %7 = load ptr, ptr %nd.addr, align 8
  %nvectors = getelementptr inbounds %struct.NICInfo, ptr %7, i32 0, i32 7
  %8 = load i32, ptr %nvectors, align 8
  %cmp = icmp ne i32 %8, -1
  br i1 %cmp, label %land.lhs.true, label %if.end5

land.lhs.true:                                    ; preds = %if.end
  %9 = load ptr, ptr %dev.addr, align 8
  %call = call ptr @object_property_find(ptr noundef %9, ptr noundef @.str.13)
  %tobool2 = icmp ne ptr %call, null
  br i1 %tobool2, label %if.then3, label %if.end5

if.then3:                                         ; preds = %land.lhs.true
  %10 = load ptr, ptr %dev.addr, align 8
  %11 = load ptr, ptr %nd.addr, align 8
  %nvectors4 = getelementptr inbounds %struct.NICInfo, ptr %11, i32 0, i32 7
  %12 = load i32, ptr %nvectors4, align 8
  call void @qdev_prop_set_uint32(ptr noundef %10, ptr noundef @.str.13, i32 noundef %12)
  br label %if.end5

if.end5:                                          ; preds = %if.then3, %land.lhs.true, %if.end
  %13 = load ptr, ptr %nd.addr, align 8
  %instantiated = getelementptr inbounds %struct.NICInfo, ptr %13, i32 0, i32 6
  store i32 1, ptr %instantiated, align 4
  ret void
}