; Function Attrs: nounwind sspstrong uwtable
define dso_local void @qdev_set_nic_properties(ptr noundef %dev, ptr noundef captures(none) %nd) local_unnamed_addr #0 {
entry:
  %str.i = alloca [18 x i8], align 16
  call void @llvm.lifetime.start.p0(i64 18, ptr nonnull %str.i)
  %0 = load i8, ptr %nd, align 1
  %conv.i = zext i8 %0 to i32
  %arrayidx1.i = getelementptr i8, ptr %nd, i64 1
  %1 = load i8, ptr %arrayidx1.i, align 1
  %conv2.i = zext i8 %1 to i32
  %arrayidx3.i = getelementptr i8, ptr %nd, i64 2
  %2 = load i8, ptr %arrayidx3.i, align 1
  %conv4.i = zext i8 %2 to i32
  %arrayidx5.i = getelementptr i8, ptr %nd, i64 3
  %3 = load i8, ptr %arrayidx5.i, align 1
  %conv6.i = zext i8 %3 to i32
  %arrayidx7.i = getelementptr i8, ptr %nd, i64 4
  %4 = load i8, ptr %arrayidx7.i, align 1
  %conv8.i = zext i8 %4 to i32
  %arrayidx9.i = getelementptr i8, ptr %nd, i64 5
  %5 = load i8, ptr %arrayidx9.i, align 1
  %conv10.i = zext i8 %5 to i32
  %call.i = call i32 (ptr, i64, ptr, ...) @snprintf(ptr noundef nonnull dereferenceable(1) %str.i, i64 noundef 18, ptr noundef nonnull @.str.4, i32 noundef %conv.i, i32 noundef %conv2.i, i32 noundef %conv4.i, i32 noundef %conv6.i, i32 noundef %conv8.i, i32 noundef %conv10.i) #10
  %call12.i = call zeroext i1 @object_property_set_str(ptr noundef %dev, ptr noundef nonnull @.str.11, ptr noundef nonnull %str.i, ptr noundef nonnull @error_abort) #10
  call void @llvm.lifetime.end.p0(i64 18, ptr nonnull %str.i)
  %netdev = getelementptr inbounds nuw i8, ptr %nd, i64 32
  %6 = load ptr, ptr %netdev, align 8
  %tobool.not = icmp eq ptr %6, null
  br i1 %tobool.not, label %if.end, label %lor.lhs.false.i

lor.lhs.false.i:                                  ; preds = %entry
  %name1.i = getelementptr inbounds nuw i8, ptr %6, i64 56
  %7 = load ptr, ptr %name1.i, align 8
  %tobool2.not.i = icmp eq ptr %7, null
  br i1 %tobool2.not.i, label %if.else.i, label %qdev_prop_set_netdev.exit

if.else.i:                                        ; preds = %lor.lhs.false.i
  call void @__assert_fail(ptr noundef nonnull @.str.10, ptr noundef nonnull @.str.9, i32 noundef 538, ptr noundef nonnull @__PRETTY_FUNCTION__.qdev_prop_set_netdev) #12
  unreachable

qdev_prop_set_netdev.exit:                        ; preds = %lor.lhs.false.i
  %call.i9 = call zeroext i1 @object_property_set_str(ptr noundef %dev, ptr noundef nonnull @.str.12, ptr noundef nonnull %7, ptr noundef nonnull @error_abort) #10
  br label %if.end

if.end:                                           ; preds = %qdev_prop_set_netdev.exit, %entry
  %nvectors = getelementptr inbounds nuw i8, ptr %nd, i64 48
  %8 = load i32, ptr %nvectors, align 8
  %cmp.not = icmp eq i32 %8, -1
  br i1 %cmp.not, label %if.end5, label %land.lhs.true

land.lhs.true:                                    ; preds = %if.end
  %call = call ptr @object_property_find(ptr noundef %dev, ptr noundef nonnull @.str.13) #10
  %tobool2.not = icmp eq ptr %call, null
  br i1 %tobool2.not, label %if.end5, label %if.then3

if.then3:                                         ; preds = %land.lhs.true
  %9 = load i32, ptr %nvectors, align 8
  call void @qdev_prop_set_uint32(ptr noundef %dev, ptr noundef nonnull @.str.13, i32 noundef %9) #10
  br label %if.end5

if.end5:                                          ; preds = %if.then3, %land.lhs.true, %if.end
  %instantiated = getelementptr inbounds nuw i8, ptr %nd, i64 44
  store i32 1, ptr %instantiated, align 4
  ret void
}